; Function Attrs: nounwind sspstrong uwtable
define internal ptr @ripper_lex_get_generic(ptr noundef %0, ptr noundef %1, i32 %2) #0 {
  %4 = ptrtoint ptr %1 to i64
  %5 = load i64, ptr @id_gets, align 8, !tbaa !6
  %6 = tail call i64 @rb_funcallv_public(i64 noundef %4, i64 noundef %5, i32 noundef 0, ptr noundef null) #5
  %7 = icmp eq i64 %6, 4
  br i1 %7, label %21, label %8

8:                                                ; preds = %3
  %9 = icmp eq i64 %6, 0
  %10 = and i64 %6, 7
  %11 = icmp ne i64 %10, 0
  %12 = or i1 %9, %11
  br i1 %12, label %rbimpl_RB_TYPE_P_fastpath.exit.thread, label %rbimpl_RB_TYPE_P_fastpath.exit

rbimpl_RB_TYPE_P_fastpath.exit:                   ; preds = %8
  %13 = inttoptr i64 %6 to ptr
  %14 = load i64, ptr %13, align 8, !tbaa !25
  %15 = and i64 %14, 31
  %16 = icmp eq i64 %15, 5
  br i1 %16, label %19, label %rbimpl_RB_TYPE_P_fastpath.exit.thread

rbimpl_RB_TYPE_P_fastpath.exit.thread:            ; preds = %8, %rbimpl_RB_TYPE_P_fastpath.exit
  %17 = load i64, ptr @rb_eTypeError, align 8, !tbaa !6
  %18 = tail call i64 @rb_obj_class(i64 noundef %6) #5
  tail call void (i64, ptr, ...) @rb_raise(i64 noundef %17, ptr noundef nonnull @.str.46, i64 noundef %18) #6
  unreachable

19:                                               ; preds = %rbimpl_RB_TYPE_P_fastpath.exit
  %20 = tail call ptr @rb_str_to_parser_string(ptr noundef %0, i64 noundef %6) #5
  br label %21

21:                                               ; preds = %3, %19
  %.0 = phi ptr [ %20, %19 ], [ null, %3 ]
  ret ptr %.0
}